target datalayout = "e-m:e-p270:32:32-p271:32:32-p272:64:64-i64:64-i128:128-f80:128-n8:16:32:64-S128"
target triple = "x86_64-pc-linux-gnu"

%struct.RelFileLocator = type { i32, i32, i32 }
%struct.FileTag = type { i16, i16, %struct.RelFileLocator, i64 }

; Function Attrs: nounwind uwtable
define dso_local i32 @mdunlinkfiletag(ptr noundef %0, ptr noundef %1) #0 {
  %3 = alloca ptr, align 8
  %4 = alloca ptr, align 8
  %5 = alloca ptr, align 8
  store ptr %0, ptr %3, align 8
  store ptr %1, ptr %4, align 8
  call void @llvm.lifetime.start.p0(i64 8, ptr %5) #10
  %6 = load ptr, ptr %3, align 8
  %7 = getelementptr inbounds nuw %struct.FileTag, ptr %6, i32 0, i32 2
  %8 = getelementptr inbounds nuw %struct.RelFileLocator, ptr %7, i32 0, i32 1
  %9 = load i32, ptr %8, align 4
  %10 = load ptr, ptr %3, align 8
  %11 = getelementptr inbounds nuw %struct.FileTag, ptr %10, i32 0, i32 2
  %12 = getelementptr inbounds nuw %struct.RelFileLocator, ptr %11, i32 0, i32 0
  %13 = load i32, ptr %12, align 4
  %14 = load ptr, ptr %3, align 8
  %15 = getelementptr inbounds nuw %struct.FileTag, ptr %14, i32 0, i32 2
  %16 = getelementptr inbounds nuw %struct.RelFileLocator, ptr %15, i32 0, i32 2
  %17 = load i32, ptr %16, align 4
  %18 = call ptr @GetRelationPath(i32 noundef %9, i32 noundef %13, i32 noundef %17, i32 noundef -1, i32 noundef 0)
  store ptr %18, ptr %5, align 8
  %19 = load ptr, ptr %4, align 8
  %20 = load ptr, ptr %5, align 8
  %21 = call i64 @strlcpy(ptr noundef %19, ptr noundef %20, i64 noundef 1024)
  %22 = load ptr, ptr %5, align 8
  call void @pfree(ptr noundef %22)
  %23 = load ptr, ptr %4, align 8
  %24 = call i32 @unlink(ptr noundef %23) #10
  call void @llvm.lifetime.end.p0(i64 8, ptr %5) #10
  ret i32 %24
}