; Function Attrs: nounwind uwtable
define dso_local noundef i32 @mdunlinkfiletag(ptr noundef readonly captures(none) %0, ptr noundef %1) local_unnamed_addr #0 {
  %3 = getelementptr inbounds nuw i8, ptr %0, i64 4
  %4 = getelementptr inbounds nuw i8, ptr %0, i64 8
  %5 = load i32, ptr %4, align 4
  %6 = load i32, ptr %3, align 4
  %7 = getelementptr inbounds nuw i8, ptr %0, i64 12
  %8 = load i32, ptr %7, align 4
  %9 = tail call ptr @GetRelationPath(i32 noundef %5, i32 noundef %6, i32 noundef %8, i32 noundef -1, i32 noundef 0) #15
  %10 = tail call i64 @strlcpy(ptr noundef nonnull dereferenceable(1) %1, ptr noundef nonnull dereferenceable(1) %9, i64 noundef 1024) #15
  tail call void @pfree(ptr noundef nonnull %9) #15
  %11 = tail call i32 @unlink(ptr noundef nonnull %1) #15
  ret i32 %11
}